(dp0
S'isShellCmd'
p1
I00
sS'cmd'
p2
(lp3
S'rsync'
p4
aS'-avLP'
p5
aS'/Volumes/CLA00131/SHIP2036847.tar'
p6
aS'scg3:/srv/gsfs0/projects/mvp/Claritas_ion_torrent_exomes/data/CLA00131/SHIP2036847.tar'
p7
asS'errFile'
p8
S'/Users/gmcinnes/src/ClaritasExomeAnalysis/logs/CLA00131/pyflow.data/logs/pyflow_tasks_stderr_log.txt'
p9
sS'outFile'
p10
S'/Users/gmcinnes/src/ClaritasExomeAnalysis/logs/CLA00131/pyflow.data/logs/pyflow_tasks_stdout_log.txt'
p11
sS'env'
p12
NsS'nCores'
p13
I1
sS'cwd'
p14
S''
p15
s.